target datalayout = "e-m:e-p270:32:32-p271:32:32-p272:64:64-i64:64-i128:128-f80:128-n8:16:32:64-S128"
target triple = "x86_64-pc-linux-gnu"

%"class.std::basic_ostream" = type { ptr, %"class.std::basic_ios" }
%"class.std::basic_ios" = type { %"class.std::ios_base", ptr, i8, i8, ptr, ptr, ptr, ptr }
%"class.std::ios_base" = type { ptr, i64, i64, i32, i32, i32, ptr, %"struct.std::ios_base::_Words", [8 x %"struct.std::ios_base::_Words"], i32, ptr, %"class.std::locale" }
%"struct.std::ios_base::_Words" = type { ptr, i64 }
%"class.std::locale" = type { ptr }
%"class.mu::Test::ParserTester" = type { %"class.std::vector" }
%"class.std::vector" = type { %"struct.std::_Vector_base" }
%"struct.std::_Vector_base" = type { %"struct.std::_Vector_base<int (mu::Test::ParserTester::*)(), std::allocator<int (mu::Test::ParserTester::*)()>>::_Vector_impl" }
%"struct.std::_Vector_base<int (mu::Test::ParserTester::*)(), std::allocator<int (mu::Test::ParserTester::*)()>>::_Vector_impl" = type { %"struct.std::_Vector_base<int (mu::Test::ParserTester::*)(), std::allocator<int (mu::Test::ParserTester::*)()>>::_Vector_impl_data" }
%"struct.std::_Vector_base<int (mu::Test::ParserTester::*)(), std::allocator<int (mu::Test::ParserTester::*)()>>::_Vector_impl_data" = type { ptr, ptr, ptr }

@_ZN2mu4Test12ParserTester8c_iCountE = global i32 0, align 4
@_ZSt4cout = external global %"class.std::basic_ostream", align 8
@_ZTIN2mu11ParserErrorE = linkonce_odr constant { ptr, ptr } { ptr getelementptr inbounds (ptr, ptr @_ZTVN10__cxxabiv117__class_type_infoE, i64 2), ptr @_ZTSN2mu11ParserErrorE }, comdat, align 8
@_ZTISt9exception = external constant ptr
@.str.575 = private unnamed_addr constant [15 x i8] c"Internal error\00", align 1
@.str.576 = private unnamed_addr constant [2 x i8] c"\0A\00", align 1
@.str.577 = private unnamed_addr constant [14 x i8] c"Test passed (\00", align 1
@.str.578 = private unnamed_addr constant [14 x i8] c" expressions)\00", align 1
@.str.579 = private unnamed_addr constant [18 x i8] c"Test failed with \00", align 1
@.str.580 = private unnamed_addr constant [10 x i8] c" errors (\00", align 1

; Function Attrs: mustprogress nounwind uwtable
define linkonce_odr noundef nonnull align 8 dereferenceable(8) ptr @_ZN2mu7consoleEv() #6 comdat {
  ret ptr @_ZSt4cout
}

; Function Attrs: mustprogress nounwind uwtable
define linkonce_odr noundef nonnull align 8 dereferenceable(16) ptr @_ZNSt6vectorIMN2mu4Test12ParserTesterEFivESaIS4_EEixEm(ptr noundef nonnull align 8 dereferenceable(24) %0, i64 noundef %1) #6 comdat align 2 {
  %3 = alloca ptr, align 8
  %4 = alloca i64, align 8
  store ptr %0, ptr %3, align 8
  store i64 %1, ptr %4, align 8
  %5 = load ptr, ptr %3, align 8
  %6 = getelementptr inbounds %"struct.std::_Vector_base", ptr %5, i32 0, i32 0
  %7 = getelementptr inbounds %"struct.std::_Vector_base<int (mu::Test::ParserTester::*)(), std::allocator<int (mu::Test::ParserTester::*)()>>::_Vector_impl_data", ptr %6, i32 0, i32 0
  %8 = load ptr, ptr %7, align 8
  %9 = load i64, ptr %4, align 8
  %10 = getelementptr inbounds { i64, i64 }, ptr %8, i64 %9
  ret ptr %10
}

; Function Attrs: mustprogress nounwind uwtable
define linkonce_odr noundef i64 @_ZNKSt6vectorIMN2mu4Test12ParserTesterEFivESaIS4_EE4sizeEv(ptr noundef nonnull align 8 dereferenceable(24) %0) #6 comdat align 2 {
  %2 = alloca ptr, align 8
  store ptr %0, ptr %2, align 8
  %3 = load ptr, ptr %2, align 8
  %4 = getelementptr inbounds %"struct.std::_Vector_base", ptr %3, i32 0, i32 0
  %5 = getelementptr inbounds %"struct.std::_Vector_base<int (mu::Test::ParserTester::*)(), std::allocator<int (mu::Test::ParserTester::*)()>>::_Vector_impl_data", ptr %4, i32 0, i32 1
  %6 = load ptr, ptr %5, align 8
  %7 = getelementptr inbounds %"struct.std::_Vector_base", ptr %3, i32 0, i32 0
  %8 = getelementptr inbounds %"struct.std::_Vector_base<int (mu::Test::ParserTester::*)(), std::allocator<int (mu::Test::ParserTester::*)()>>::_Vector_impl_data", ptr %7, i32 0, i32 0
  %9 = load ptr, ptr %8, align 8
  %10 = ptrtoint ptr %6 to i64
  %11 = ptrtoint ptr %9 to i64
  %12 = sub i64 %10, %11
  %13 = sdiv exact i64 %12, 16
  ret i64 %13
}

; Function Attrs: mustprogress uwtable
define noundef i32 @_ZN2mu4Test12ParserTester3RunEv(ptr noundef nonnull align 8 dereferenceable(24) %0) #4 align 2 personality ptr @__gxx_personality_v0 {
  %2 = alloca ptr, align 8
  %3 = alloca i32, align 4
  %4 = alloca i32, align 4
  %5 = alloca ptr, align 8
  %6 = alloca i32, align 4
  %7 = alloca ptr, align 8
  %8 = alloca ptr, align 8
  store ptr %0, ptr %2, align 8
  %9 = load ptr, ptr %2, align 8
  store i32 0, ptr %3, align 4
  store i32 0, ptr %4, align 4
  br label %10

10:                                               ; preds = %40, %1
  %11 = load i32, ptr %4, align 4
  %12 = getelementptr inbounds %"class.mu::Test::ParserTester", ptr %9, i32 0, i32 0
  %13 = call noundef i64 @_ZNKSt6vectorIMN2mu4Test12ParserTesterEFivESaIS4_EE4sizeEv(ptr noundef nonnull align 8 dereferenceable(24) %12) #3
  %14 = trunc i64 %13 to i32
  %15 = icmp slt i32 %11, %14
  br i1 %15, label %16, label %107

16:                                               ; preds = %10
  %17 = getelementptr inbounds %"class.mu::Test::ParserTester", ptr %9, i32 0, i32 0
  %18 = load i32, ptr %4, align 4
  %19 = sext i32 %18 to i64
  %20 = call noundef nonnull align 8 dereferenceable(16) ptr @_ZNSt6vectorIMN2mu4Test12ParserTesterEFivESaIS4_EEixEm(ptr noundef nonnull align 8 dereferenceable(24) %17, i64 noundef %19) #3
  %21 = load { i64, i64 }, ptr %20, align 8
  %22 = extractvalue { i64, i64 } %21, 1
  %23 = getelementptr inbounds i8, ptr %9, i64 %22
  %24 = extractvalue { i64, i64 } %21, 0
  %25 = and i64 %24, 1
  %26 = icmp ne i64 %25, 0
  br i1 %26, label %27, label %32

27:                                               ; preds = %16
  %28 = load ptr, ptr %23, align 8
  %29 = sub i64 %24, 1
  %30 = getelementptr i8, ptr %28, i64 %29, !nosanitize !17
  %31 = load ptr, ptr %30, align 8, !nosanitize !17
  br label %34

32:                                               ; preds = %16
  %33 = inttoptr i64 %24 to ptr
  br label %34

34:                                               ; preds = %32, %27
  %35 = phi ptr [ %31, %27 ], [ %33, %32 ]
  %36 = invoke noundef i32 %35(ptr noundef nonnull align 8 dereferenceable(24) %23)
          to label %37 unwind label %43

37:                                               ; preds = %34
  %38 = load i32, ptr %3, align 4
  %39 = add nsw i32 %38, %36
  store i32 %39, ptr %3, align 4
  br label %40

40:                                               ; preds = %37
  %41 = load i32, ptr %4, align 4
  %42 = add nsw i32 %41, 1
  store i32 %42, ptr %4, align 4
  br label %10, !llvm.loop !18

43:                                               ; preds = %34
  %44 = landingpad { ptr, i32 }
          catch ptr @_ZTIN2mu11ParserErrorE
          catch ptr @_ZTISt9exception
          catch ptr null
  %45 = extractvalue { ptr, i32 } %44, 0
  store ptr %45, ptr %5, align 8
  %46 = extractvalue { ptr, i32 } %44, 1
  store i32 %46, ptr %6, align 4
  br label %47

47:                                               ; preds = %43
  %48 = load i32, ptr %6, align 4
  %49 = call i32 @llvm.eh.typeid.for(ptr @_ZTIN2mu11ParserErrorE) #3
  %50 = icmp eq i32 %48, %49
  br i1 %50, label %51, label %83

51:                                               ; preds = %47
  %52 = load ptr, ptr %5, align 8
  %53 = call ptr @__cxa_begin_catch(ptr %52) #3
  store ptr %53, ptr %8, align 8
  %54 = call noundef nonnull align 8 dereferenceable(8) ptr @_ZN2mu7consoleEv()
  %55 = invoke noundef nonnull align 8 dereferenceable(8) ptr @_ZStlsISt11char_traitsIcEERSt13basic_ostreamIcT_ES5_PKc(ptr noundef nonnull align 8 dereferenceable(8) %54, ptr noundef @.str.576)
          to label %56 unwind label %118

56:                                               ; preds = %51
  %57 = load ptr, ptr %8, align 8
  %58 = invoke noundef nonnull align 8 dereferenceable(32) ptr @_ZNK2mu11ParserError6GetMsgB5cxx11Ev(ptr noundef nonnull align 8 dereferenceable(112) %57)
          to label %59 unwind label %118

59:                                               ; preds = %56
  %60 = invoke noundef nonnull align 8 dereferenceable(8) ptr @_ZStlsIcSt11char_traitsIcESaIcEERSt13basic_ostreamIT_T0_ES7_RKNSt7__cxx1112basic_stringIS4_S5_T1_EE(ptr noundef nonnull align 8 dereferenceable(8) %55, ptr noundef nonnull align 8 dereferenceable(32) %58)
          to label %61 unwind label %118

61:                                               ; preds = %59
  %62 = invoke noundef nonnull align 8 dereferenceable(8) ptr @_ZNSolsEPFRSoS_E(ptr noundef nonnull align 8 dereferenceable(8) %60, ptr noundef @_ZSt4endlIcSt11char_traitsIcEERSt13basic_ostreamIT_T0_ES6_)
          to label %63 unwind label %118

63:                                               ; preds = %61
  %64 = call noundef nonnull align 8 dereferenceable(8) ptr @_ZN2mu7consoleEv()
  %65 = load ptr, ptr %8, align 8
  %66 = invoke noundef nonnull align 8 dereferenceable(32) ptr @_ZNK2mu11ParserError8GetTokenB5cxx11Ev(ptr noundef nonnull align 8 dereferenceable(112) %65)
          to label %67 unwind label %118

67:                                               ; preds = %63
  %68 = invoke noundef nonnull align 8 dereferenceable(8) ptr @_ZStlsIcSt11char_traitsIcESaIcEERSt13basic_ostreamIT_T0_ES7_RKNSt7__cxx1112basic_stringIS4_S5_T1_EE(ptr noundef nonnull align 8 dereferenceable(8) %64, ptr noundef nonnull align 8 dereferenceable(32) %66)
          to label %69 unwind label %118

69:                                               ; preds = %67
  %70 = invoke noundef nonnull align 8 dereferenceable(8) ptr @_ZNSolsEPFRSoS_E(ptr noundef nonnull align 8 dereferenceable(8) %68, ptr noundef @_ZSt4endlIcSt11char_traitsIcEERSt13basic_ostreamIT_T0_ES6_)
          to label %71 unwind label %118

71:                                               ; preds = %69
  invoke void @_ZNK2mu4Test12ParserTester5AbortEv(ptr noundef nonnull align 8 dereferenceable(24) %9)
          to label %72 unwind label %118

72:                                               ; preds = %71
  call void @__cxa_end_catch()
  br label %73

73:                                               ; preds = %107, %106, %99, %72
  %74 = load i32, ptr %3, align 4
  %75 = icmp eq i32 %74, 0
  br i1 %75, label %76, label %123

76:                                               ; preds = %73
  %77 = call noundef nonnull align 8 dereferenceable(8) ptr @_ZN2mu7consoleEv()
  %78 = call noundef nonnull align 8 dereferenceable(8) ptr @_ZStlsISt11char_traitsIcEERSt13basic_ostreamIcT_ES5_PKc(ptr noundef nonnull align 8 dereferenceable(8) %77, ptr noundef @.str.577)
  %79 = load i32, ptr @_ZN2mu4Test12ParserTester8c_iCountE, align 4
  %80 = call noundef nonnull align 8 dereferenceable(8) ptr @_ZNSolsEi(ptr noundef nonnull align 8 dereferenceable(8) %78, i32 noundef %79)
  %81 = call noundef nonnull align 8 dereferenceable(8) ptr @_ZStlsISt11char_traitsIcEERSt13basic_ostreamIcT_ES5_PKc(ptr noundef nonnull align 8 dereferenceable(8) %80, ptr noundef @.str.578)
  %82 = call noundef nonnull align 8 dereferenceable(8) ptr @_ZNSolsEPFRSoS_E(ptr noundef nonnull align 8 dereferenceable(8) %81, ptr noundef @_ZSt4endlIcSt11char_traitsIcEERSt13basic_ostreamIT_T0_ES6_)
  br label %133

83:                                               ; preds = %47
  %84 = call i32 @llvm.eh.typeid.for(ptr @_ZTISt9exception) #3
  %85 = icmp eq i32 %48, %84
  br i1 %85, label %86, label %100

86:                                               ; preds = %83
  %87 = load ptr, ptr %5, align 8
  %88 = call ptr @__cxa_begin_catch(ptr %87) #3
  store ptr %88, ptr %7, align 8
  %89 = call noundef nonnull align 8 dereferenceable(8) ptr @_ZN2mu7consoleEv()
  %90 = load ptr, ptr %7, align 8
  %91 = load ptr, ptr %90, align 8
  %92 = getelementptr inbounds ptr, ptr %91, i64 2
  %93 = load ptr, ptr %92, align 8
  %94 = call noundef ptr %93(ptr noundef nonnull align 8 dereferenceable(8) %90) #3
  %95 = invoke noundef nonnull align 8 dereferenceable(8) ptr @_ZStlsISt11char_traitsIcEERSt13basic_ostreamIcT_ES5_PKc(ptr noundef nonnull align 8 dereferenceable(8) %89, ptr noundef %94)
          to label %96 unwind label %113

96:                                               ; preds = %86
  %97 = invoke noundef nonnull align 8 dereferenceable(8) ptr @_ZNSolsEPFRSoS_E(ptr noundef nonnull align 8 dereferenceable(8) %95, ptr noundef @_ZSt4endlIcSt11char_traitsIcEERSt13basic_ostreamIT_T0_ES6_)
          to label %98 unwind label %113

98:                                               ; preds = %96
  invoke void @_ZNK2mu4Test12ParserTester5AbortEv(ptr noundef nonnull align 8 dereferenceable(24) %9)
          to label %99 unwind label %113

99:                                               ; preds = %98
  call void @__cxa_end_catch()
  br label %73

100:                                              ; preds = %83
  %101 = load ptr, ptr %5, align 8
  %102 = call ptr @__cxa_begin_catch(ptr %101) #3
  %103 = call noundef nonnull align 8 dereferenceable(8) ptr @_ZN2mu7consoleEv()
  %104 = invoke noundef nonnull align 8 dereferenceable(8) ptr @_ZStlsISt11char_traitsIcEERSt13basic_ostreamIcT_ES5_PKc(ptr noundef nonnull align 8 dereferenceable(8) %103, ptr noundef @.str.575)
          to label %105 unwind label %108

105:                                              ; preds = %100
  invoke void @_ZNK2mu4Test12ParserTester5AbortEv(ptr noundef nonnull align 8 dereferenceable(24) %9)
          to label %106 unwind label %108

106:                                              ; preds = %105
  call void @__cxa_end_catch()
  br label %73

107:                                              ; preds = %10
  br label %73

108:                                              ; preds = %105, %100
  %109 = landingpad { ptr, i32 }
          cleanup
  %110 = extractvalue { ptr, i32 } %109, 0
  store ptr %110, ptr %5, align 8
  %111 = extractvalue { ptr, i32 } %109, 1
  store i32 %111, ptr %6, align 4
  invoke void @__cxa_end_catch()
          to label %112 unwind label %140

112:                                              ; preds = %108
  br label %135

113:                                              ; preds = %98, %96, %86
  %114 = landingpad { ptr, i32 }
          cleanup
  %115 = extractvalue { ptr, i32 } %114, 0
  store ptr %115, ptr %5, align 8
  %116 = extractvalue { ptr, i32 } %114, 1
  store i32 %116, ptr %6, align 4
  invoke void @__cxa_end_catch()
          to label %117 unwind label %140

117:                                              ; preds = %113
  br label %135

118:                                              ; preds = %71, %69, %67, %63, %61, %59, %56, %51
  %119 = landingpad { ptr, i32 }
          cleanup
  %120 = extractvalue { ptr, i32 } %119, 0
  store ptr %120, ptr %5, align 8
  %121 = extractvalue { ptr, i32 } %119, 1
  store i32 %121, ptr %6, align 4
  invoke void @__cxa_end_catch()
          to label %122 unwind label %140

122:                                              ; preds = %118
  br label %135

123:                                              ; preds = %73
  %124 = call noundef nonnull align 8 dereferenceable(8) ptr @_ZN2mu7consoleEv()
  %125 = call noundef nonnull align 8 dereferenceable(8) ptr @_ZStlsISt11char_traitsIcEERSt13basic_ostreamIcT_ES5_PKc(ptr noundef nonnull align 8 dereferenceable(8) %124, ptr noundef @.str.579)
  %126 = load i32, ptr %3, align 4
  %127 = call noundef nonnull align 8 dereferenceable(8) ptr @_ZNSolsEi(ptr noundef nonnull align 8 dereferenceable(8) %125, i32 noundef %126)
  %128 = call noundef nonnull align 8 dereferenceable(8) ptr @_ZStlsISt11char_traitsIcEERSt13basic_ostreamIcT_ES5_PKc(ptr noundef nonnull align 8 dereferenceable(8) %127, ptr noundef @.str.580)
  %129 = load i32, ptr @_ZN2mu4Test12ParserTester8c_iCountE, align 4
  %130 = call noundef nonnull align 8 dereferenceable(8) ptr @_ZNSolsEi(ptr noundef nonnull align 8 dereferenceable(8) %128, i32 noundef %129)
  %131 = call noundef nonnull align 8 dereferenceable(8) ptr @_ZStlsISt11char_traitsIcEERSt13basic_ostreamIcT_ES5_PKc(ptr noundef nonnull align 8 dereferenceable(8) %130, ptr noundef @.str.578)
  %132 = call noundef nonnull align 8 dereferenceable(8) ptr @_ZNSolsEPFRSoS_E(ptr noundef nonnull align 8 dereferenceable(8) %131, ptr noundef @_ZSt4endlIcSt11char_traitsIcEERSt13basic_ostreamIT_T0_ES6_)
  br label %133

133:                                              ; preds = %123, %76
  store i32 0, ptr @_ZN2mu4Test12ParserTester8c_iCountE, align 4
  %134 = load i32, ptr %3, align 4
  ret i32 %134

135:                                              ; preds = %122, %117, %112
  %136 = load ptr, ptr %5, align 8
  %137 = load i32, ptr %6, align 4
  %138 = insertvalue { ptr, i32 } poison, ptr %136, 0
  %139 = insertvalue { ptr, i32 } %138, i32 %137, 1
  resume { ptr, i32 } %139

140:                                              ; preds = %118, %113, %108
  %141 = landingpad { ptr, i32 }
          catch ptr null
  %142 = extractvalue { ptr, i32 } %141, 0
  call void @__clang_call_terminate(ptr %142) #18
  unreachable
}