; Function Attrs: mustprogress uwtable
define noundef i32 @_ZN2mu4Test12ParserTester3RunEv(ptr noundef nonnull align 8 dereferenceable(24) %0) local_unnamed_addr #3 align 2 personality ptr @__gxx_personality_v0 {
  %2 = getelementptr inbounds i8, ptr %0, i64 8
  %3 = load ptr, ptr %2, align 8
  %4 = load ptr, ptr %0, align 8
  %5 = ptrtoint ptr %3 to i64
  %6 = ptrtoint ptr %4 to i64
  %7 = sub i64 %5, %6
  %8 = lshr exact i64 %7, 4
  %9 = trunc i64 %8 to i32
  %10 = icmp sgt i32 %9, 0
  br i1 %10, label %.lr.ph, label %._crit_edge.thread

.lr.ph:                                           ; preds = %1, %25
  %indvars.iv = phi i64 [ %indvars.iv.next, %25 ], [ 0, %1 ]
  %11 = phi ptr [ %28, %25 ], [ %4, %1 ]
  %.027 = phi i32 [ %26, %25 ], [ 0, %1 ]
  %12 = getelementptr inbounds { i64, i64 }, ptr %11, i64 %indvars.iv
  %.unpack = load i64, ptr %12, align 8
  %.elt20 = getelementptr inbounds i8, ptr %12, i64 8
  %.unpack21 = load i64, ptr %.elt20, align 8
  %13 = getelementptr inbounds i8, ptr %0, i64 %.unpack21
  %14 = and i64 %.unpack, 1
  %.not = icmp eq i64 %14, 0
  br i1 %.not, label %20, label %15

15:                                               ; preds = %.lr.ph
  %16 = load ptr, ptr %13, align 8
  %17 = getelementptr i8, ptr %16, i64 %.unpack
  %18 = getelementptr i8, ptr %17, i64 -1
  %19 = load ptr, ptr %18, align 8, !nosanitize !19
  br label %22

20:                                               ; preds = %.lr.ph
  %21 = inttoptr i64 %.unpack to ptr
  br label %22

22:                                               ; preds = %20, %15
  %23 = phi ptr [ %19, %15 ], [ %21, %20 ]
  %24 = invoke noundef i32 %23(ptr noundef nonnull align 8 dereferenceable(24) %13)
          to label %25 unwind label %34

25:                                               ; preds = %22
  %26 = add nsw i32 %24, %.027
  %indvars.iv.next = add nuw nsw i64 %indvars.iv, 1
  %27 = load ptr, ptr %2, align 8
  %28 = load ptr, ptr %0, align 8
  %29 = ptrtoint ptr %27 to i64
  %30 = ptrtoint ptr %28 to i64
  %31 = sub i64 %29, %30
  %sext = shl i64 %31, 28
  %32 = ashr i64 %sext, 32
  %33 = icmp slt i64 %indvars.iv.next, %32
  br i1 %33, label %.lr.ph, label %._crit_edge, !llvm.loop !20

34:                                               ; preds = %22
  %35 = landingpad { ptr, i32 }
          catch ptr @_ZTIN2mu11ParserErrorE
          catch ptr @_ZTISt9exception
          catch ptr null
  %36 = extractvalue { ptr, i32 } %35, 0
  %37 = extractvalue { ptr, i32 } %35, 1
  %38 = tail call i32 @llvm.eh.typeid.for(ptr nonnull @_ZTIN2mu11ParserErrorE) #23
  %39 = icmp eq i32 %37, %38
  br i1 %39, label %40, label %58

40:                                               ; preds = %34
  %41 = tail call ptr @__cxa_begin_catch(ptr %36) #23
  %42 = invoke noundef nonnull align 8 dereferenceable(8) ptr @_ZStlsISt11char_traitsIcEERSt13basic_ostreamIcT_ES5_PKc(ptr noundef nonnull align 8 dereferenceable(8) @_ZSt4cout, ptr noundef nonnull @.str.576)
          to label %43 unwind label %78

43:                                               ; preds = %40
  %44 = invoke noundef nonnull align 8 dereferenceable(32) ptr @_ZNK2mu11ParserError6GetMsgB5cxx11Ev(ptr noundef nonnull align 8 dereferenceable(112) %41)
          to label %45 unwind label %78

45:                                               ; preds = %43
  %46 = invoke noundef nonnull align 8 dereferenceable(8) ptr @_ZStlsIcSt11char_traitsIcESaIcEERSt13basic_ostreamIT_T0_ES7_RKNSt7__cxx1112basic_stringIS4_S5_T1_EE(ptr noundef nonnull align 8 dereferenceable(8) %42, ptr noundef nonnull align 8 dereferenceable(32) %44)
          to label %47 unwind label %78

47:                                               ; preds = %45
  %48 = invoke noundef nonnull align 8 dereferenceable(8) ptr @_ZNSolsEPFRSoS_E(ptr noundef nonnull align 8 dereferenceable(8) %46, ptr noundef nonnull @_ZSt4endlIcSt11char_traitsIcEERSt13basic_ostreamIT_T0_ES6_)
          to label %49 unwind label %78

49:                                               ; preds = %47
  %50 = invoke noundef nonnull align 8 dereferenceable(32) ptr @_ZNK2mu11ParserError8GetTokenB5cxx11Ev(ptr noundef nonnull align 8 dereferenceable(112) %41)
          to label %51 unwind label %78

51:                                               ; preds = %49
  %52 = invoke noundef nonnull align 8 dereferenceable(8) ptr @_ZStlsIcSt11char_traitsIcESaIcEERSt13basic_ostreamIT_T0_ES7_RKNSt7__cxx1112basic_stringIS4_S5_T1_EE(ptr noundef nonnull align 8 dereferenceable(8) @_ZSt4cout, ptr noundef nonnull align 8 dereferenceable(32) %50)
          to label %53 unwind label %78

53:                                               ; preds = %51
  %54 = invoke noundef nonnull align 8 dereferenceable(8) ptr @_ZNSolsEPFRSoS_E(ptr noundef nonnull align 8 dereferenceable(8) %52, ptr noundef nonnull @_ZSt4endlIcSt11char_traitsIcEERSt13basic_ostreamIT_T0_ES6_)
          to label %55 unwind label %78

55:                                               ; preds = %53
  invoke void @_ZNK2mu4Test12ParserTester5AbortEv(ptr nonnull align 8 poison)
          to label %.unreachable24 unwind label %78

.unreachable24:                                   ; preds = %55
  unreachable

._crit_edge:                                      ; preds = %25
  %56 = icmp eq i32 %26, 0
  br i1 %56, label %._crit_edge.thread, label %80

._crit_edge.thread:                               ; preds = %1, %._crit_edge
  %57 = tail call noundef nonnull align 8 dereferenceable(8) ptr @_ZStlsISt11char_traitsIcEERSt13basic_ostreamIcT_ES5_PKc(ptr noundef nonnull align 8 dereferenceable(8) @_ZSt4cout, ptr noundef nonnull @.str.577)
  br label %84

58:                                               ; preds = %34
  %59 = tail call i32 @llvm.eh.typeid.for(ptr nonnull @_ZTISt9exception) #23
  %60 = icmp eq i32 %37, %59
  %61 = tail call ptr @__cxa_begin_catch(ptr %36) #23
  br i1 %60, label %62, label %71

62:                                               ; preds = %58
  %63 = load ptr, ptr %61, align 8
  %64 = getelementptr inbounds i8, ptr %63, i64 16
  %65 = load ptr, ptr %64, align 8
  %66 = tail call noundef ptr %65(ptr noundef nonnull align 8 dereferenceable(8) %61) #23
  %67 = invoke noundef nonnull align 8 dereferenceable(8) ptr @_ZStlsISt11char_traitsIcEERSt13basic_ostreamIcT_ES5_PKc(ptr noundef nonnull align 8 dereferenceable(8) @_ZSt4cout, ptr noundef %66)
          to label %68 unwind label %76

68:                                               ; preds = %62
  %69 = invoke noundef nonnull align 8 dereferenceable(8) ptr @_ZNSolsEPFRSoS_E(ptr noundef nonnull align 8 dereferenceable(8) %67, ptr noundef nonnull @_ZSt4endlIcSt11char_traitsIcEERSt13basic_ostreamIT_T0_ES6_)
          to label %70 unwind label %76

70:                                               ; preds = %68
  invoke void @_ZNK2mu4Test12ParserTester5AbortEv(ptr nonnull align 8 poison)
          to label %.unreachable23 unwind label %76

.unreachable23:                                   ; preds = %70
  unreachable

71:                                               ; preds = %58
  %72 = invoke noundef nonnull align 8 dereferenceable(8) ptr @_ZStlsISt11char_traitsIcEERSt13basic_ostreamIcT_ES5_PKc(ptr noundef nonnull align 8 dereferenceable(8) @_ZSt4cout, ptr noundef nonnull @.str.575)
          to label %73 unwind label %74

73:                                               ; preds = %71
  invoke void @_ZNK2mu4Test12ParserTester5AbortEv(ptr nonnull align 8 poison)
          to label %.unreachable unwind label %74

.unreachable:                                     ; preds = %73
  unreachable

74:                                               ; preds = %73, %71
  %75 = landingpad { ptr, i32 }
          cleanup
  invoke void @__cxa_end_catch()
          to label %89 unwind label %90

76:                                               ; preds = %70, %68, %62
  %77 = landingpad { ptr, i32 }
          cleanup
  invoke void @__cxa_end_catch()
          to label %89 unwind label %90

78:                                               ; preds = %55, %53, %51, %49, %47, %45, %43, %40
  %79 = landingpad { ptr, i32 }
          cleanup
  invoke void @__cxa_end_catch()
          to label %89 unwind label %90

80:                                               ; preds = %._crit_edge
  %81 = tail call noundef nonnull align 8 dereferenceable(8) ptr @_ZStlsISt11char_traitsIcEERSt13basic_ostreamIcT_ES5_PKc(ptr noundef nonnull align 8 dereferenceable(8) @_ZSt4cout, ptr noundef nonnull @.str.579)
  %82 = tail call noundef nonnull align 8 dereferenceable(8) ptr @_ZNSolsEi(ptr noundef nonnull align 8 dereferenceable(8) %81, i32 noundef %26)
  %83 = tail call noundef nonnull align 8 dereferenceable(8) ptr @_ZStlsISt11char_traitsIcEERSt13basic_ostreamIcT_ES5_PKc(ptr noundef nonnull align 8 dereferenceable(8) %82, ptr noundef nonnull @.str.580)
  br label %84

84:                                               ; preds = %80, %._crit_edge.thread
  %.sink = phi ptr [ %83, %80 ], [ %57, %._crit_edge.thread ]
  %.0.lcssa30 = phi i32 [ %26, %80 ], [ 0, %._crit_edge.thread ]
  %85 = load i32, ptr @_ZN2mu4Test12ParserTester8c_iCountE, align 4
  %86 = tail call noundef nonnull align 8 dereferenceable(8) ptr @_ZNSolsEi(ptr noundef nonnull align 8 dereferenceable(8) %.sink, i32 noundef %85)
  %87 = tail call noundef nonnull align 8 dereferenceable(8) ptr @_ZStlsISt11char_traitsIcEERSt13basic_ostreamIcT_ES5_PKc(ptr noundef nonnull align 8 dereferenceable(8) %86, ptr noundef nonnull @.str.578)
  %88 = tail call noundef nonnull align 8 dereferenceable(8) ptr @_ZNSolsEPFRSoS_E(ptr noundef nonnull align 8 dereferenceable(8) %87, ptr noundef nonnull @_ZSt4endlIcSt11char_traitsIcEERSt13basic_ostreamIT_T0_ES6_)
  store i32 0, ptr @_ZN2mu4Test12ParserTester8c_iCountE, align 4
  ret i32 %.0.lcssa30

89:                                               ; preds = %78, %76, %74
  %.pn = phi { ptr, i32 } [ %79, %78 ], [ %77, %76 ], [ %75, %74 ]
  resume { ptr, i32 } %.pn

90:                                               ; preds = %78, %76, %74
  %91 = landingpad { ptr, i32 }
          catch ptr null
  %92 = extractvalue { ptr, i32 } %91, 0
  tail call void @__clang_call_terminate(ptr %92) #25
  unreachable
}